******************************************************************************
                  TI ARM Linker PC v20.2.1                     
******************************************************************************
>> Linked Mon Oct 12 05:55:15 2020

OUTPUT FILE NAME:   <CAPTURE.out>
ENTRY POINT SYMBOL: "_c_int00_noargs"  address: 00007921


MEMORY CONFIGURATION

         name            origin    length      used     unused   attr    fill
----------------------  --------  ---------  --------  --------  ----  --------
  MAIN                  00000000   00040000  00008a38  000375c8  R  X
  INFO                  00200000   00004000  00000000  00004000  R  X
  SRAM_CODE             01000000   00010000  00000860  0000f7a0  RW X
  SRAM_DATA             20000000   00010000  00000860  0000f7a0  RW  


SEGMENT ALLOCATION MAP

run origin  load origin   length   init length attrs members
----------  ----------- ---------- ----------- ----- -------
00000000    00000000    00008a38   00008a38    r-x
  00000000    00000000    000000e4   000000e4    r-- .intvecs
  000000e4    000000e4    0000799c   0000799c    r-x .text
  00007a80    00007a80    00000f10   00000f10    r-- .const
  00008990    00008990    000000a8   000000a8    r-- .cinit
20000000    20000000    00000660   00000000    rw-
  20000000    20000000    000000e8   00000000    rw- .vtable
  200000e8    200000e8    00000430   00000000    rw- .bss
  20000518    20000518    00000148   00000000    rw- .data
2000fe00    2000fe00    00000200   00000000    rw-
  2000fe00    2000fe00    00000200   00000000    rw- .stack


SECTION ALLOCATION MAP

 output                                  attributes/
section   page    origin      length       input sections
--------  ----  ----------  ----------   ----------------
.intvecs   0    00000000    000000e4     
                  00000000    000000e4     startup_msp432p401r_ccs.obj (.intvecs:retain)

.text      0    000000e4    0000799c     
                  000000e4    000015a8     flash.obj (.text)
                  0000168c    00000c5c     cs.obj (.text)
                  000022e8    00000a4e     rtsv7M4_T_le_v4SPD16_eabi.lib : _printfi.c.obj (.text:__TI_printfi)
                  00002d36    00000002                                   : div0.asm.obj (.text)
                  00002d38    00000a34     oled_i2c.obj (.text)
                  0000376c    00000908     adc14.obj (.text)
                  00004074    00000498     control_task.obj (.text)
                  0000450c    00000480     gpio.obj (.text)
                  0000498c    00000448     uart.obj (.text)
                  00004dd4    0000040c     interrupt.obj (.text)
                  000051e0    00000334     system_msp432p401r.obj (.text)
                  00005514    00000330     key.obj (.text)
                  00005844    00000270     rtsv7M4_T_le_v4SPD16_eabi.lib : _printfi.c.obj (.text:_pconv_a)
                  00005ab4    00000254     printf.obj (.text)
                  00005d08    00000248     sysctl.obj (.text)
                  00005f50    00000220     pid.obj (.text)
                  00006170    000001d0     rtsv7M4_T_le_v4SPD16_eabi.lib : _printfi.c.obj (.text:_pconv_g)
                  00006340    000001b6                                   : fd_add_t2.asm.obj (.text)
                  000064f6    00000002     --HOLE-- [fill = 0]
                  000064f8    00000154     adc14_multi_channal.obj (.text)
                  0000664c    0000013c     rtsv7M4_T_le_v4SPD16_eabi.lib : _printfi.c.obj (.text:_pconv_e)
                  00006788    00000136                                   : fd_div_t2.asm.obj (.text)
                  000068be    00000002     --HOLE-- [fill = 0]
                  000068c0    00000128     System.obj (.text)
                  000069e8    00000124     rtsv7M4_T_le_v4SPD16_eabi.lib : _printfi.c.obj (.text:fcvt)
                  00006b0c    00000120     main.obj (.text)
                  00006c2c    00000110     rtsv7M4_T_le_v4SPD16_eabi.lib : s_scalbn.c.obj (.text:scalbn)
                  00006d3c    000000fc                                   : fd_mul_t2.asm.obj (.text)
                  00006e38    000000d8     wdt_a.obj (.text)
                  00006f10    000000d4     delay.obj (.text)
                  00006fe4    000000b1     rtsv7M4_T_le_v4SPD16_eabi.lib : _printfi.c.obj (.text:_ltostr)
                  00007095    00000001     --HOLE-- [fill = 0]
                  00007096    0000009c                                   : memcpy_t2.asm.obj (.text)
                  00007132    00000096                                   : ull_div_t2.asm.obj (.text)
                  000071c8    00000088     encoder.obj (.text)
                  00007250    00000086     rtsv7M4_T_le_v4SPD16_eabi.lib : fd_cmp_t2.asm.obj (.text:__aeabi_cdcmple)
                  000072d6    00000086                                   : fd_cmp_t2.asm.obj (.text:__aeabi_cdrcmple)
                  0000735c    0000007a                                   : memset_t2.asm.obj (.text)
                  000073d6    00000002     --HOLE-- [fill = 0]
                  000073d8    00000074     systick.obj (.text)
                  0000744c    0000006e     rtsv7M4_T_le_v4SPD16_eabi.lib : _printfi.c.obj (.text:_mcpy)
                  000074ba    0000006e                                   : fd_tos_t2.asm.obj (.text)
                  00007528    00000068                                   : copy_decompress_lzss.c.obj (.text:decompress:lzss:__TI_decompress_lzss)
                  00007590    00000064                                   : s_frexp.c.obj (.text:frexp)
                  000075f4    00000064     pwm.obj (.text)
                  00007658    00000056     rtsv7M4_T_le_v4SPD16_eabi.lib : _printfi.c.obj (.text:_pconv_f)
                  000076ae    00000054                                   : _ltoa.c.obj (.text:__TI_ltoa)
                  00007702    00000052                                   : _printfi.c.obj (.text:_ecpy)
                  00007754    0000004c                                   : atoi.c.obj (.text:atoi)
                  000077a0    00000048                                   : fd_toi_t2.asm.obj (.text)
                  000077e8    00000044                                   : autoinit.c.obj (.text:__TI_auto_init_nobinit_nopinit:__TI_auto_init_nobinit_nopinit)
                  0000782c    00000040                                   : sprintf.c.obj (.text:sprintf)
                  0000786c    0000003e                                   : _printfi.c.obj (.text:_fcpy)
                  000078aa    0000003e     cpu.obj (.text)
                  000078e8    00000038     rtsv7M4_T_le_v4SPD16_eabi.lib : fs_tod_t2.asm.obj (.text)
                  00007920    00000034                                   : boot_cortex_m.c.obj (.text:_c_int00_noargs:_c_int00_noargs)
                  00007954    00000030     Interrupt.obj (.text)
                  00007984    0000002e     rtsv7M4_T_le_v4SPD16_eabi.lib : i_tofd_t2.asm.obj (.text)
                  000079b2    0000001c                                   : memccpy.c.obj (.text:memccpy)
                  000079ce    0000001a                                   : s_copysign.c.obj (.text:copysign)
                  000079e8    00000018                                   : sprintf.c.obj (.text:_outs)
                  00007a00    00000016                                   : strchr.c.obj (.text:strchr)
                  00007a16    00000014                                   : strlen.c.obj (.text:strlen)
                  00007a2a    00000012                                   : wcslen.c.obj (.text:wcslen)
                  00007a3c    0000000e                                   : copy_decompress_none.c.obj (.text:decompress:none:__TI_decompress_none)
                  00007a4a    0000000e     startup_msp432p401r_ccs.obj (.text)
                  00007a58    0000000c     rtsv7M4_T_le_v4SPD16_eabi.lib : copy_zero_init.c.obj (.text:decompress:ZI:__TI_zero_init)
                  00007a64    0000000a                                   : sprintf.c.obj (.text:_outc)
                  00007a6e    00000002     --HOLE-- [fill = 0]
                  00007a70    00000008                                   : errno.c.obj (.text:__aeabi_errno_addr)
                  00007a78    00000004                                   : pre_init.c.obj (.text:_system_pre_init)
                  00007a7c    00000004                                   : exit.c.obj (.text:abort:abort)

.const     0    00007a80    00000f10     
                  00007a80    000005f0     oled_i2c.obj (.const:.string:F8X16)
                  00008070    00000400     oled_i2c.obj (.const:.string:F16x16)
                  00008470    00000228     oled_i2c.obj (.const:F6x8)
                  00008698    00000101     rtsv7M4_T_le_v4SPD16_eabi.lib : ctype.c.obj (.const:.string:_ctypes_)
                  00008799    00000003     --HOLE-- [fill = 0]
                  0000879c    00000080     adc14.obj (.const:_ctlRegs)
                  0000881c    00000050     interrupt.obj (.const:g_pulRegs)
                  0000886c    00000030     gpio.obj (.const:GPIO_PORT_TO_BASE)
                  0000889c    00000028     printf.obj (.const:dv)
                  000088c4    00000028     System.obj (.const:uartConfig)
                  000088ec    00000020     interrupt.obj (.const:g_pulPriority)
                  0000890c    0000001c     gpio.obj (.const:GPIO_PORT_TO_INT)
                  00008928    00000018     pwm.obj (.const:upDownConfig)
                  00008940    00000010     printf.obj (.const:.string:hex$1)
                  00008950    00000010     pwm.obj (.const:compareConfig_PWM3)
                  00008960    00000010     pwm.obj (.const:compareConfig_PWM4)
                  00008970    00000008     interrupt.obj (.const:g_pulDisRegs)
                  00008978    00000008     interrupt.obj (.const:g_pulEnRegs)
                  00008980    00000008     interrupt.obj (.const:g_pulPendRegs)
                  00008988    00000008     interrupt.obj (.const:g_pulUnpendRegs)

.cinit     0    00008990    000000a8     
                  00008990    0000006d     (.cinit..data.load) [load image, compression = lzss]
                  000089fd    00000003     --HOLE-- [fill = 0]
                  00008a00    0000000c     (__TI_handler_table)
                  00008a0c    00000004     --HOLE-- [fill = 0]
                  00008a10    00000008     (.cinit..bss.load) [load image, compression = zero_init]
                  00008a18    00000008     (.cinit..vtable.load) [load image, compression = zero_init]
                  00008a20    00000018     (__TI_cinit_table)

.init_array 
*          0    00000000    00000000     UNINITIALIZED

.binit     0    00000000    00000000     

.vtable    0    20000000    000000e8     UNINITIALIZED
                  20000000    000000e8     interrupt.obj (.vtable)

.bss       0    200000e8    00000430     UNINITIALIZED
                  200000e8    00000400     (.common:OLED_GRAM)
                  200004e8    00000014     (.common:res)
                  200004fc    0000000c     adc14_multi_channal.obj (.bss:resultsBuffer)
                  20000508    00000008     control_task.obj (.bss)
                  20000510    00000008     cs.obj (.bss)

.data      0    20000518    00000148     UNINITIALIZED
                  20000518    00000040     control_task.obj (.data:PID_Diff)
                  20000558    00000040     control_task.obj (.data:PID_L)
                  20000598    00000040     control_task.obj (.data:PID_R)
                  200005d8    00000040     flash.obj (.data:__getBurstProgramRegs)
                  20000618    0000001c     control_task.obj (.data)
                  20000634    00000018     key.obj (.data)
                  2000064c    00000008     control_task.obj (.data:ch)
                  20000654    00000004     delay.obj (.data)
                  20000658    00000004     rtsv7M4_T_le_v4SPD16_eabi.lib : errno.c.obj (.data)
                  2000065c    00000004     system_msp432p401r.obj (.data)

.stack     0    2000fe00    00000200     UNINITIALIZED
                  2000fe00    00000004     rtsv7M4_T_le_v4SPD16_eabi.lib : boot_cortex_m.c.obj (.stack)
                  2000fe04    000001fc     --HOLE--

__llvm_prf_cnts 
*          0    20000000    00000000     UNINITIALIZED

MODULE SUMMARY

       Module                        code    ro data   rw data
       ------                        ----    -------   -------
    .\
       key.obj                       816     0         48     
       system_msp432p401r.obj        820     0         8      
       main.obj                      288     0         40     
       startup_msp432p401r_ccs.obj   14      228       0      
    +--+-----------------------------+-------+---------+---------+
       Total:                        1938    228       96     
                                                              
    .\delay\
       delay.obj                     212     0         8      
    +--+-----------------------------+-------+---------+---------+
       Total:                        212     0         8      
                                                              
    .\driverlib\
       flash.obj                     5544    0         128    
       cs.obj                        3164    0         16     
       adc14.obj                     2312    128       0      
       interrupt.obj                 1036    144       464    
       gpio.obj                      1152    76        0      
       uart.obj                      1096    0         0      
       sysctl.obj                    584     0         0      
       wdt_a.obj                     216     0         0      
       systick.obj                   116     0         0      
       cpu.obj                       62      0         0      
    +--+-----------------------------+-------+---------+---------+
       Total:                        15282   348       608    
                                                              
    .\oled\
       oled_i2c.obj                  2612    3096      2048   
    +--+-----------------------------+-------+---------+---------+
       Total:                        2612    3096      2048   
                                                              
    .\src\
       control_task.obj              1176    0         472    
       printf.obj                    596     56        0      
       pid.obj                       544     0         0      
       adc14_multi_channal.obj       340     0         24     
       System.obj                    296     40        0      
       pwm.obj                       100     56        0      
       encoder.obj                   136     0         0      
       Interrupt.obj                 48      0         0      
    +--+-----------------------------+-------+---------+---------+
       Total:                        3236    152       496    
                                                              
    D:\ccs\tools\compiler\ti-cgt-arm_20.2.1.LTS\lib\rtsv7M4_T_le_v4SPD16_eabi.lib
       _printfi.c.obj                4851    0         0      
       fd_add_t2.asm.obj             438     0         0      
       fd_div_t2.asm.obj             310     0         0      
       s_scalbn.c.obj                272     0         0      
       fd_cmp_t2.asm.obj             268     0         0      
       ctype.c.obj                   0       257       0      
       fd_mul_t2.asm.obj             252     0         0      
       memcpy_t2.asm.obj             156     0         0      
       ull_div_t2.asm.obj            150     0         0      
       memset_t2.asm.obj             122     0         0      
       fd_tos_t2.asm.obj             110     0         0      
       copy_decompress_lzss.c.obj    104     0         0      
       s_frexp.c.obj                 100     0         0      
       sprintf.c.obj                 98      0         0      
       _ltoa.c.obj                   84      0         0      
       atoi.c.obj                    76      0         0      
       fd_toi_t2.asm.obj             72      0         0      
       autoinit.c.obj                68      0         0      
       fs_tod_t2.asm.obj             56      0         0      
       boot_cortex_m.c.obj           52      0         0      
       i_tofd_t2.asm.obj             46      0         0      
       memccpy.c.obj                 28      0         0      
       s_copysign.c.obj              26      0         0      
       strchr.c.obj                  22      0         0      
       strlen.c.obj                  20      0         0      
       wcslen.c.obj                  18      0         0      
       errno.c.obj                   8       0         8      
       copy_decompress_none.c.obj    14      0         0      
       copy_zero_init.c.obj          12      0         0      
       exit.c.obj                    4       0         0      
       pre_init.c.obj                4       0         0      
       div0.asm.obj                  2       0         0      
    +--+-----------------------------+-------+---------+---------+
       Total:                        7843    257       8      
                                                              
       Stack:                        0       0         1024   
       Linker Generated:             0       161       0      
    +--+-----------------------------+-------+---------+---------+
       Grand Total:                  31123   4242      4288   


LINKER GENERATED COPY TABLES

__TI_cinit_table @ 00008a20 records: 3, size/record: 8, table size: 24
	.data: load addr=00008990, load size=0000006d bytes, run addr=20000518, run size=00000148 bytes, compression=lzss
	.bss: load addr=00008a10, load size=00000008 bytes, run addr=200000e8, run size=00000430 bytes, compression=zero_init
	.vtable: load addr=00008a18, load size=00000008 bytes, run addr=20000000, run size=000000e8 bytes, compression=zero_init


LINKER GENERATED HANDLER TABLE

__TI_handler_table @ 00008a00 records: 3, size/record: 4, table size: 12
	index: 0, handler: __TI_zero_init
	index: 1, handler: __TI_decompress_lzss
	index: 2, handler: __TI_decompress_none


GLOBAL SYMBOLS: SORTED ALPHABETICALLY BY Name 

address   name                                       
-------   ----                                       
00007a57  ADC14_IRQHandler                           
00003fed  ADC14_clearInterruptFlag                   
00003b75  ADC14_configureConversionMemory            
00003a09  ADC14_configureMultiSequenceMode           
00003ab1  ADC14_configureSingleSampleMode            
00003cc5  ADC14_disableComparatorWindow              
00003b43  ADC14_disableConversion                    
00003f67  ADC14_disableInterrupt                     
000038dd  ADC14_disableModule                        
00003ee7  ADC14_disableReferenceBurst                
0000391d  ADC14_disableSampleTimer                   
00003c25  ADC14_enableComparatorWindow               
00003b01  ADC14_enableConversion                     
00003f3f  ADC14_enableInterrupt                      
000038d5  ADC14_enableModule                         
00003ed1  ADC14_enableReferenceBurst                 
000038f3  ADC14_enableSampleTimer                    
00003fb9  ADC14_getEnabledInterruptStatus            
00003f8f  ADC14_getInterruptStatus                   
00003dfb  ADC14_getMultiSequenceResult               
00003993  ADC14_getResolution                        
00003dd7  ADC14_getResult                            
00003e49  ADC14_getResultArray                       
00003933  ADC14_initModule                           
00003b4f  ADC14_isBusy                               
00004015  ADC14_registerInterrupt                    
00003d23  ADC14_setComparatorWindowValue             
00003efd  ADC14_setPowerMode                         
00003979  ADC14_setResolution                        
00003dad  ADC14_setResultFormat                      
000039df  ADC14_setSampleHoldTime                    
0000399d  ADC14_setSampleHoldTrigger                 
00003b21  ADC14_toggleConversionTrigger              
00004029  ADC14_unregisterInterrupt                  
00007a57  AES256_IRQHandler                          
00007a57  BusFault_Handler                           
00007a7d  C$$EXIT                                    
00007a57  COMP_E0_IRQHandler                         
00007a57  COMP_E1_IRQHandler                         
000078df  CPU_basepriGet                             
000078d1  CPU_basepriSet                             
000078ab  CPU_cpsid                                  
000078c1  CPU_cpsie                                  
000078b7  CPU_primask                                
000078cd  CPU_wfi                                    
00007a57  CS_IRQHandler                              
0000225d  CS_clearInterruptFlag                      
00001c35  CS_disableClockRequest                     
00001d13  CS_disableDCOExternalResistor              
00002145  CS_disableFaultCounter                     
0000220d  CS_disableInterrupt                        
00001c0d  CS_enableClockRequest                      
00001c7d  CS_enableDCOExternalResistor               
00002119  CS_enableFaultCounter                      
000021e1  CS_enableInterrupt                         
000020ab  CS_getACLK                                 
0000206b  CS_getBCLK                                 
00001df1  CS_getDCOFrequency                         
0000223d  CS_getEnabledInterruptStatus               
00002087  CS_getHSMCLK                               
0000222f  CS_getInterruptStatus                      
000020f1  CS_getMCLK                                 
000020cf  CS_getSMCLK                                
0000192d  CS_initClockSignal                         
00002289  CS_registerInterrupt                       
00002171  CS_resetFaultCounter                       
00001d31  CS_setDCOCenteredFrequency                 
00001ca5  CS_setDCOExternalResistorCalibration       
00001f09  CS_setDCOFrequency                         
000018f1  CS_setExternalClockSourceFrequency         
00001c57  CS_setReferenceOscillatorFrequency         
0000219d  CS_startFaultCounter                       
00001a31  CS_startHFXT                               
00001a55  CS_startHFXTWithTimeout                    
00001b19  CS_startLFXT                               
00001b3d  CS_startLFXTWithTimeout                    
00001d61  CS_tuneDCOFrequency                        
000022a1  CS_unregisterInterrupt                     
000068f9  Clock_init                                 
00004107  Control_Task                               
00007a57  DMA_ERR_IRQHandler                         
00007a57  DMA_INT0_IRQHandler                        
00007a57  DMA_INT1_IRQHandler                        
00007a57  DMA_INT2_IRQHandler                        
00007a57  DMA_INT3_IRQHandler                        
00007a57  DebugMon_Handler                           
00007a57  Default_Handler                            
00003099  Draw_BMP                                   
00007977  EUSCIA0_IRQHandler                         
00007977  EUSCIA0_IRQHandler                         
00007a57  EUSCIA1_IRQHandler                         
00007a57  EUSCIA2_IRQHandler                         
00007a57  EUSCIA3_IRQHandler                         
00007a57  EUSCIB0_IRQHandler                         
00007a57  EUSCIB1_IRQHandler                         
00007a57  EUSCIB2_IRQHandler                         
00007a57  EUSCIB3_IRQHandler                         
000071c9  Encoder_init                               
00008070  F16x16                                     
00008470  F6x8                                       
00007a80  F8X16                                      
00007a57  FLCTL_IRQHandler                           
00007a57  FPU_IRQHandler                             
0000112b  FlashCtl_clearInterruptFlag                
00000fef  FlashCtl_clearProgramVerification          
00001101  FlashCtl_disableInterrupt                  
00000661  FlashCtl_disableReadBuffering              
00001059  FlashCtl_disableWordProgramming            
000010ed  FlashCtl_enableInterrupt                   
0000060d  FlashCtl_enableReadBuffering               
00001029  FlashCtl_enableWordProgramming             
00000c91  FlashCtl_eraseSector                       
0000111b  FlashCtl_getEnabledInterruptStatus         
00001115  FlashCtl_getInterruptStatus                
0000028f  FlashCtl_getMemoryInfo                     
00000af1  FlashCtl_getReadMode                       
000010bf  FlashCtl_getWaitState                      
00000b1f  FlashCtl_initiateMassErase                 
00000db9  FlashCtl_initiateSectorErase               
0000078d  FlashCtl_isSectorProtected                 
00001061  FlashCtl_isWordProgrammingEnabled          
00000b45  FlashCtl_performMassErase                  
00000e49  FlashCtl_programMemory                     
0000072d  FlashCtl_protectSector                     
0000113f  FlashCtl_registerInterrupt                 
00000fb5  FlashCtl_setProgramVerification            
00000a81  FlashCtl_setReadMode                       
00001081  FlashCtl_setWaitState                      
000006bd  FlashCtl_unprotectSector                   
00001153  FlashCtl_unregisterInterrupt               
00000819  FlashCtl_verifyMemory                      
0000482f  GPIO_clearInterruptFlag                    
000047ef  GPIO_disableInterrupt                      
000047cd  GPIO_enableInterrupt                       
00004887  GPIO_getEnabledInterruptStatus             
0000479f  GPIO_getInputPinValue                      
00004811  GPIO_getInterruptStatus                    
00004851  GPIO_interruptEdgeSelect                   
00004947  GPIO_registerInterrupt                     
00004547  GPIO_setAsInputPin                         
000046fb  GPIO_setAsInputPinWithPullDownResistor     
0000474d  GPIO_setAsInputPinWithPullUpResistor       
0000450d  GPIO_setAsOutputPin                        
00004611  GPIO_setAsPeripheralModuleFunctionInputPin 
0000458d  GPIO_setAsPeripheralModuleFunctionOutputPin
00004903  GPIO_setDriveStrengthHigh                  
00004925  GPIO_setDriveStrengthLow                   
00004695  GPIO_setOutputHighOnPin                    
000046b7  GPIO_setOutputLowOnPin                     
000046d9  GPIO_toggleOutputOnPin                     
00004967  GPIO_unregisterInterrupt                   
00007a57  HardFault_Handler                          
000030f5  I2C_OLED_Init                              
00002e31  I2C_RecvACK_OLED                           
00002f0b  I2C_RecvByte_OLED                          
00002dd7  I2C_SendACK_OLED                           
00002e83  I2C_SendByte_OLED                          
00002d85  I2C_Stop_OLED                              
00002d39  I2C_start_OLED                             
00004fb5  Interrupt_disableInterrupt                 
00004de7  Interrupt_disableMaster                    
000051b1  Interrupt_disableSleepOnIsrExit            
00004f43  Interrupt_enableInterrupt                  
00004dd7  Interrupt_enableMaster                     
0000519f  Interrupt_enableSleepOnIsrExit             
00004f1d  Interrupt_getPriority                      
00004e95  Interrupt_getPriorityGrouping              
0000517f  Interrupt_getPriorityMask                  
00005199  Interrupt_getVectorTableAddress            
00005027  Interrupt_isEnabled                        
000050b1  Interrupt_pendInterrupt                    
00004df7  Interrupt_registerInterrupt                
00004ecd  Interrupt_setPriority                      
00004e5d  Interrupt_setPriorityGrouping              
0000516f  Interrupt_setPriorityMask                  
00005189  Interrupt_setVectorTableAddress            
00005121  Interrupt_unpendInterrupt                  
00004e49  Interrupt_unregisterInterrupt              
00005515  KEY_init                                   
00007a57  MemManage_Handler                          
000043cd  Motor                                      
000043f1  Motor_L                                    
00004439  Motor_R                                    
00007a57  NMI_Handler                                
0000301d  OLED_All                                   
00003085  OLED_CLC                                   
00003199  OLED_DrawPoint                             
00003235  OLED_Fill                                  
200000e8  OLED_GRAM                                  
00003499  OLED_P16x16Ch                              
000032ff  OLED_P6x8Str                               
000033ab  OLED_P8x16Str                              
0000329d  OLED_Refresh_Gram                          
00002fe3  OLED_Set_Pos                               
00002fbf  OLED_WRITE_COM                             
00002fd1  OLED_WRITE_dat                             
00007a57  PCM_IRQHandler                             
00006001  PID_Calc                                   
20000518  PID_Diff                                   
00005f99  PID_Init                                   
20000558  PID_L                                      
20000598  PID_R                                      
00005f51  PID_Reset                                  
00005591  PORT1_IRQHandler                           
00005591  PORT1_IRQHandler                           
00007a57  PORT2_IRQHandler                           
00007a57  PORT3_IRQHandler                           
00007a57  PORT4_IRQHandler                           
00007a57  PORT5_IRQHandler                           
00007a57  PORT6_IRQHandler                           
00007a57  PSS_IRQHandler                             
00007a57  PendSV_Handler                             
0000430d  Printf                                     
000075f5  Pwm_init                                   
00007a57  RTC_C_IRQHandler                           
000040db  Read_Encoder                               
00004389  Remoter                                    
00007a4b  Reset_Handler                              
00007a57  SVC_Handler                                
00002f95  Single_Write_OLED                          
00005eff  SysCtl_disableGlitchFilter                 
00005d8b  SysCtl_disableNMISource                    
00005e97  SysCtl_disablePeripheralAtCPUHalt          
00005dd9  SysCtl_disableSRAMBank                     
00005e5d  SysCtl_disableSRAMBankRetention            
00005ef3  SysCtl_enableGlitchFilter                  
00005d9f  SysCtl_enableNMISource                     
00005e83  SysCtl_enablePeripheralAtCPUHalt           
00005dbd  SysCtl_enableSRAMBank                      
00005e41  SysCtl_enableSRAMBankRetention             
00005d85  SysCtl_getFlashSize                        
00005db3  SysCtl_getNMISourceStatus                  
00005d7f  SysCtl_getSRAMSize                         
00005d09  SysCtl_getTLVInfo                          
00005f0b  SysCtl_getTempCalibrationConstant          
00005e79  SysCtl_rebootDevice                        
00005ecf  SysCtl_setWDTPasswordViolationResetType    
00005eab  SysCtl_setWDTTimeoutResetType              
00007a57  SysTick_Handler                            
00007415  SysTick_disableInterrupt                   
000073e5  SysTick_disableModule                      
00007409  SysTick_enableInterrupt                    
000073d9  SysTick_enableModule                       
00007433  SysTick_getPeriod                          
0000743b  SysTick_getValue                           
000073f1  SysTick_registerInterrupt                  
00007421  SysTick_setPeriod                          
000073ff  SysTick_unregisterInterrupt                
2000065c  SystemCoreClock                            
000051e1  SystemCoreClockUpdate                      
00005459  SystemInit                                 
000068c1  System_init                                
00007955  T32_INT1_IRQHandler                        
00007955  T32_INT1_IRQHandler                        
00007a57  T32_INT2_IRQHandler                        
00007a57  T32_INTC_IRQHandler                        
00007a57  TA0_0_IRQHandler                           
00007a57  TA0_N_IRQHandler                           
00007a57  TA1_0_IRQHandler                           
00007a57  TA1_N_IRQHandler                           
00007a57  TA2_0_IRQHandler                           
00007a57  TA2_N_IRQHandler                           
00007a57  TA3_0_IRQHandler                           
00007a57  TA3_N_IRQHandler                           
00006bcf  Thread                                     
00006937  Timer32_init                               
20000638  Travel_time                                
00004cd1  UART_clearInterruptFlag                    
00004c15  UART_disableInterrupt                      
00004af7  UART_disableModule                         
00004be5  UART_enableInterrupt                       
00004ae1  UART_enableModule                          
00004c69  UART_getEnabledInterruptStatus             
00004c45  UART_getInterruptStatus                    
00004bad  UART_getReceiveBufferAddressForDMA         
00004bbb  UART_getTransmitBufferAddressForDMA        
0000498d  UART_initModule                            
00004b0d  UART_queryStatusFlags                      
00004abb  UART_receiveData                           
00004cf1  UART_registerInterrupt                     
00004b35  UART_resetDormant                          
00004bc9  UART_selectDeglitchTime                    
00004b21  UART_setDormant                            
00004b49  UART_transmitAddress                       
00004b67  UART_transmitBreak                         
00004a91  UART_transmitData                          
00004d69  UART_unregisterInterrupt                   
0000698f  Uart_init                                  
00007a57  UsageFault_Handler                         
4000480c  WDTCTL_SYM                                 
00007a57  WDT_A_IRQHandler                           
00006e79  WDT_A_clearTimer                           
00006e39  WDT_A_holdTimer                            
00006eb5  WDT_A_initIntervalTimer                    
00006e99  WDT_A_initWatchdogTimer                    
00006ee9  WDT_A_registerInterrupt                    
00006ed1  WDT_A_setPasswordViolationReset            
00006edd  WDT_A_setTimeoutReset                      
00006e59  WDT_A_startTimer                           
00006efd  WDT_A_unregisterInterrupt                  
0000155f  __FlashCtl_remaskBurstDataPost             
0000143d  __FlashCtl_remaskBurstDataPre              
00001281  __FlashCtl_remaskData32Post                
00001365  __FlashCtl_remaskData32Pre                 
00001163  __FlashCtl_remaskData8Post                 
000011e3  __FlashCtl_remaskData8Pre                  
20010000  __STACK_END                                
00000200  __STACK_SIZE                               
00008a20  __TI_CINIT_Base                            
00008a38  __TI_CINIT_Limit                           
00008a00  __TI_Handler_Table_Base                    
00008a0c  __TI_Handler_Table_Limit                   
000077e9  __TI_auto_init_nobinit_nopinit             
00007529  __TI_decompress_lzss                       
00007a3d  __TI_decompress_none                       
000076af  __TI_ltoa                                  
ffffffff  __TI_pprof_out_hndl                        
000022e9  __TI_printfi                               
ffffffff  __TI_prof_data_size                        
ffffffff  __TI_prof_data_start                       
00000000  __TI_static_base__                         
00007a59  __TI_zero_init                             
00007251  __aeabi_cdcmpeq                            
00007251  __aeabi_cdcmple                            
000072d7  __aeabi_cdrcmple                           
000074bb  __aeabi_d2f                                
000077a1  __aeabi_d2iz                               
0000634b  __aeabi_dadd                               
00006789  __aeabi_ddiv                               
00006d3d  __aeabi_dmul                               
00006341  __aeabi_dsub                               
00007a71  __aeabi_errno_addr                         
000078e9  __aeabi_f2d                                
00007985  __aeabi_i2d                                
00002d37  __aeabi_idiv0                              
00002d37  __aeabi_ldiv0                              
0000735d  __aeabi_memclr                             
0000735d  __aeabi_memclr4                            
0000735d  __aeabi_memclr8                            
00007097  __aeabi_memcpy                             
00007097  __aeabi_memcpy4                            
00007097  __aeabi_memcpy8                            
0000735f  __aeabi_memset                             
0000735f  __aeabi_memset4                            
0000735f  __aeabi_memset8                            
00007133  __aeabi_uldivmod                           
ffffffff  __binit__                                  
ffffffff  __c_args__                                 
UNDEFED   __mpu_init                                 
2000fe00  __stack                                    
20000000  __start___llvm_prf_cnts                    
20000000  __stop___llvm_prf_cnts                     
00007921  _c_int00_noargs                            
00008698  _ctypes_                                   
UNDEFED   _system_post_cinit                         
00007a79  _system_pre_init                           
00007a7d  abort                                      
000064f9  adc14_init                                 
00007755  atoi                                       
ffffffff  binit                                      
000041af  calculate                                  
2000062c  cap_flag                                   
2000064c  ch                                         
00008950  compareConfig_PWM3                         
00008960  compareConfig_PWM4                         
000079cf  copysign                                   
000079cf  copysignl                                  
00003545  decimal                                    
000035b9  decimal_show                               
00006f11  delay_init                                 
00006f57  delay_ms                                   
00006f93  delay_us                                   
20000658  errno                                      
2000063c  flag4                                      
20000634  flag_final                                 
00007591  frexp                                      
00007591  frexpl                                     
20000000  g_pfnRAMVectors                            
000065a3  getvol                                     
00000000  interruptVectors                           
00006c2d  ldexp                                      
00006c2d  ldexpl                                     
00004479  limit_pwm                                  
00004117  lowpass_1order                             
00006b0d  main                                       
000079b3  memccpy                                    
00007097  memcpy                                     
00007365  memset                                     
00005579  oled_app                                   
20000620  outdiff                                    
20000618  outl                                       
2000061c  outr                                       
00005b99  print                                      
00005af3  putc                                       
00005acf  puts                                       
00007201  read_number                                
200004e8  res                                        
00006c2d  scalbn                                     
00006c2d  scalbnl                                    
00005ab5  sendByte                                   
000040c1  set_PID_diff                               
00004075  set_PID_param                              
20000624  speed                                      
0000782d  sprintf                                    
00007a01  strchr                                     
00007a17  strlen                                     
20000628  threshold                                  
000088c4  uartConfig                                 
00008928  upDownConfig                               
00007a2b  wcslen                                     


GLOBAL SYMBOLS: SORTED BY Symbol Address 

address   name                                       
-------   ----                                       
00000000  __TI_static_base__                         
00000000  interruptVectors                           
00000200  __STACK_SIZE                               
0000028f  FlashCtl_getMemoryInfo                     
0000060d  FlashCtl_enableReadBuffering               
00000661  FlashCtl_disableReadBuffering              
000006bd  FlashCtl_unprotectSector                   
0000072d  FlashCtl_protectSector                     
0000078d  FlashCtl_isSectorProtected                 
00000819  FlashCtl_verifyMemory                      
00000a81  FlashCtl_setReadMode                       
00000af1  FlashCtl_getReadMode                       
00000b1f  FlashCtl_initiateMassErase                 
00000b45  FlashCtl_performMassErase                  
00000c91  FlashCtl_eraseSector                       
00000db9  FlashCtl_initiateSectorErase               
00000e49  FlashCtl_programMemory                     
00000fb5  FlashCtl_setProgramVerification            
00000fef  FlashCtl_clearProgramVerification          
00001029  FlashCtl_enableWordProgramming             
00001059  FlashCtl_disableWordProgramming            
00001061  FlashCtl_isWordProgrammingEnabled          
00001081  FlashCtl_setWaitState                      
000010bf  FlashCtl_getWaitState                      
000010ed  FlashCtl_enableInterrupt                   
00001101  FlashCtl_disableInterrupt                  
00001115  FlashCtl_getInterruptStatus                
0000111b  FlashCtl_getEnabledInterruptStatus         
0000112b  FlashCtl_clearInterruptFlag                
0000113f  FlashCtl_registerInterrupt                 
00001153  FlashCtl_unregisterInterrupt               
00001163  __FlashCtl_remaskData8Post                 
000011e3  __FlashCtl_remaskData8Pre                  
00001281  __FlashCtl_remaskData32Post                
00001365  __FlashCtl_remaskData32Pre                 
0000143d  __FlashCtl_remaskBurstDataPre              
0000155f  __FlashCtl_remaskBurstDataPost             
000018f1  CS_setExternalClockSourceFrequency         
0000192d  CS_initClockSignal                         
00001a31  CS_startHFXT                               
00001a55  CS_startHFXTWithTimeout                    
00001b19  CS_startLFXT                               
00001b3d  CS_startLFXTWithTimeout                    
00001c0d  CS_enableClockRequest                      
00001c35  CS_disableClockRequest                     
00001c57  CS_setReferenceOscillatorFrequency         
00001c7d  CS_enableDCOExternalResistor               
00001ca5  CS_setDCOExternalResistorCalibration       
00001d13  CS_disableDCOExternalResistor              
00001d31  CS_setDCOCenteredFrequency                 
00001d61  CS_tuneDCOFrequency                        
00001df1  CS_getDCOFrequency                         
00001f09  CS_setDCOFrequency                         
0000206b  CS_getBCLK                                 
00002087  CS_getHSMCLK                               
000020ab  CS_getACLK                                 
000020cf  CS_getSMCLK                                
000020f1  CS_getMCLK                                 
00002119  CS_enableFaultCounter                      
00002145  CS_disableFaultCounter                     
00002171  CS_resetFaultCounter                       
0000219d  CS_startFaultCounter                       
000021e1  CS_enableInterrupt                         
0000220d  CS_disableInterrupt                        
0000222f  CS_getInterruptStatus                      
0000223d  CS_getEnabledInterruptStatus               
0000225d  CS_clearInterruptFlag                      
00002289  CS_registerInterrupt                       
000022a1  CS_unregisterInterrupt                     
000022e9  __TI_printfi                               
00002d37  __aeabi_idiv0                              
00002d37  __aeabi_ldiv0                              
00002d39  I2C_start_OLED                             
00002d85  I2C_Stop_OLED                              
00002dd7  I2C_SendACK_OLED                           
00002e31  I2C_RecvACK_OLED                           
00002e83  I2C_SendByte_OLED                          
00002f0b  I2C_RecvByte_OLED                          
00002f95  Single_Write_OLED                          
00002fbf  OLED_WRITE_COM                             
00002fd1  OLED_WRITE_dat                             
00002fe3  OLED_Set_Pos                               
0000301d  OLED_All                                   
00003085  OLED_CLC                                   
00003099  Draw_BMP                                   
000030f5  I2C_OLED_Init                              
00003199  OLED_DrawPoint                             
00003235  OLED_Fill                                  
0000329d  OLED_Refresh_Gram                          
000032ff  OLED_P6x8Str                               
000033ab  OLED_P8x16Str                              
00003499  OLED_P16x16Ch                              
00003545  decimal                                    
000035b9  decimal_show                               
000038d5  ADC14_enableModule                         
000038dd  ADC14_disableModule                        
000038f3  ADC14_enableSampleTimer                    
0000391d  ADC14_disableSampleTimer                   
00003933  ADC14_initModule                           
00003979  ADC14_setResolution                        
00003993  ADC14_getResolution                        
0000399d  ADC14_setSampleHoldTrigger                 
000039df  ADC14_setSampleHoldTime                    
00003a09  ADC14_configureMultiSequenceMode           
00003ab1  ADC14_configureSingleSampleMode            
00003b01  ADC14_enableConversion                     
00003b21  ADC14_toggleConversionTrigger              
00003b43  ADC14_disableConversion                    
00003b4f  ADC14_isBusy                               
00003b75  ADC14_configureConversionMemory            
00003c25  ADC14_enableComparatorWindow               
00003cc5  ADC14_disableComparatorWindow              
00003d23  ADC14_setComparatorWindowValue             
00003dad  ADC14_setResultFormat                      
00003dd7  ADC14_getResult                            
00003dfb  ADC14_getMultiSequenceResult               
00003e49  ADC14_getResultArray                       
00003ed1  ADC14_enableReferenceBurst                 
00003ee7  ADC14_disableReferenceBurst                
00003efd  ADC14_setPowerMode                         
00003f3f  ADC14_enableInterrupt                      
00003f67  ADC14_disableInterrupt                     
00003f8f  ADC14_getInterruptStatus                   
00003fb9  ADC14_getEnabledInterruptStatus            
00003fed  ADC14_clearInterruptFlag                   
00004015  ADC14_registerInterrupt                    
00004029  ADC14_unregisterInterrupt                  
00004075  set_PID_param                              
000040c1  set_PID_diff                               
000040db  Read_Encoder                               
00004107  Control_Task                               
00004117  lowpass_1order                             
000041af  calculate                                  
0000430d  Printf                                     
00004389  Remoter                                    
000043cd  Motor                                      
000043f1  Motor_L                                    
00004439  Motor_R                                    
00004479  limit_pwm                                  
0000450d  GPIO_setAsOutputPin                        
00004547  GPIO_setAsInputPin                         
0000458d  GPIO_setAsPeripheralModuleFunctionOutputPin
00004611  GPIO_setAsPeripheralModuleFunctionInputPin 
00004695  GPIO_setOutputHighOnPin                    
000046b7  GPIO_setOutputLowOnPin                     
000046d9  GPIO_toggleOutputOnPin                     
000046fb  GPIO_setAsInputPinWithPullDownResistor     
0000474d  GPIO_setAsInputPinWithPullUpResistor       
0000479f  GPIO_getInputPinValue                      
000047cd  GPIO_enableInterrupt                       
000047ef  GPIO_disableInterrupt                      
00004811  GPIO_getInterruptStatus                    
0000482f  GPIO_clearInterruptFlag                    
00004851  GPIO_interruptEdgeSelect                   
00004887  GPIO_getEnabledInterruptStatus             
00004903  GPIO_setDriveStrengthHigh                  
00004925  GPIO_setDriveStrengthLow                   
00004947  GPIO_registerInterrupt                     
00004967  GPIO_unregisterInterrupt                   
0000498d  UART_initModule                            
00004a91  UART_transmitData                          
00004abb  UART_receiveData                           
00004ae1  UART_enableModule                          
00004af7  UART_disableModule                         
00004b0d  UART_queryStatusFlags                      
00004b21  UART_setDormant                            
00004b35  UART_resetDormant                          
00004b49  UART_transmitAddress                       
00004b67  UART_transmitBreak                         
00004bad  UART_getReceiveBufferAddressForDMA         
00004bbb  UART_getTransmitBufferAddressForDMA        
00004bc9  UART_selectDeglitchTime                    
00004be5  UART_enableInterrupt                       
00004c15  UART_disableInterrupt                      
00004c45  UART_getInterruptStatus                    
00004c69  UART_getEnabledInterruptStatus             
00004cd1  UART_clearInterruptFlag                    
00004cf1  UART_registerInterrupt                     
00004d69  UART_unregisterInterrupt                   
00004dd7  Interrupt_enableMaster                     
00004de7  Interrupt_disableMaster                    
00004df7  Interrupt_registerInterrupt                
00004e49  Interrupt_unregisterInterrupt              
00004e5d  Interrupt_setPriorityGrouping              
00004e95  Interrupt_getPriorityGrouping              
00004ecd  Interrupt_setPriority                      
00004f1d  Interrupt_getPriority                      
00004f43  Interrupt_enableInterrupt                  
00004fb5  Interrupt_disableInterrupt                 
00005027  Interrupt_isEnabled                        
000050b1  Interrupt_pendInterrupt                    
00005121  Interrupt_unpendInterrupt                  
0000516f  Interrupt_setPriorityMask                  
0000517f  Interrupt_getPriorityMask                  
00005189  Interrupt_setVectorTableAddress            
00005199  Interrupt_getVectorTableAddress            
0000519f  Interrupt_enableSleepOnIsrExit             
000051b1  Interrupt_disableSleepOnIsrExit            
000051e1  SystemCoreClockUpdate                      
00005459  SystemInit                                 
00005515  KEY_init                                   
00005579  oled_app                                   
00005591  PORT1_IRQHandler                           
00005591  PORT1_IRQHandler                           
00005ab5  sendByte                                   
00005acf  puts                                       
00005af3  putc                                       
00005b99  print                                      
00005d09  SysCtl_getTLVInfo                          
00005d7f  SysCtl_getSRAMSize                         
00005d85  SysCtl_getFlashSize                        
00005d8b  SysCtl_disableNMISource                    
00005d9f  SysCtl_enableNMISource                     
00005db3  SysCtl_getNMISourceStatus                  
00005dbd  SysCtl_enableSRAMBank                      
00005dd9  SysCtl_disableSRAMBank                     
00005e41  SysCtl_enableSRAMBankRetention             
00005e5d  SysCtl_disableSRAMBankRetention            
00005e79  SysCtl_rebootDevice                        
00005e83  SysCtl_enablePeripheralAtCPUHalt           
00005e97  SysCtl_disablePeripheralAtCPUHalt          
00005eab  SysCtl_setWDTTimeoutResetType              
00005ecf  SysCtl_setWDTPasswordViolationResetType    
00005ef3  SysCtl_enableGlitchFilter                  
00005eff  SysCtl_disableGlitchFilter                 
00005f0b  SysCtl_getTempCalibrationConstant          
00005f51  PID_Reset                                  
00005f99  PID_Init                                   
00006001  PID_Calc                                   
00006341  __aeabi_dsub                               
0000634b  __aeabi_dadd                               
000064f9  adc14_init                                 
000065a3  getvol                                     
00006789  __aeabi_ddiv                               
000068c1  System_init                                
000068f9  Clock_init                                 
00006937  Timer32_init                               
0000698f  Uart_init                                  
00006b0d  main                                       
00006bcf  Thread                                     
00006c2d  ldexp                                      
00006c2d  ldexpl                                     
00006c2d  scalbn                                     
00006c2d  scalbnl                                    
00006d3d  __aeabi_dmul                               
00006e39  WDT_A_holdTimer                            
00006e59  WDT_A_startTimer                           
00006e79  WDT_A_clearTimer                           
00006e99  WDT_A_initWatchdogTimer                    
00006eb5  WDT_A_initIntervalTimer                    
00006ed1  WDT_A_setPasswordViolationReset            
00006edd  WDT_A_setTimeoutReset                      
00006ee9  WDT_A_registerInterrupt                    
00006efd  WDT_A_unregisterInterrupt                  
00006f11  delay_init                                 
00006f57  delay_ms                                   
00006f93  delay_us                                   
00007097  __aeabi_memcpy                             
00007097  __aeabi_memcpy4                            
00007097  __aeabi_memcpy8                            
00007097  memcpy                                     
00007133  __aeabi_uldivmod                           
000071c9  Encoder_init                               
00007201  read_number                                
00007251  __aeabi_cdcmpeq                            
00007251  __aeabi_cdcmple                            
000072d7  __aeabi_cdrcmple                           
0000735d  __aeabi_memclr                             
0000735d  __aeabi_memclr4                            
0000735d  __aeabi_memclr8                            
0000735f  __aeabi_memset                             
0000735f  __aeabi_memset4                            
0000735f  __aeabi_memset8                            
00007365  memset                                     
000073d9  SysTick_enableModule                       
000073e5  SysTick_disableModule                      
000073f1  SysTick_registerInterrupt                  
000073ff  SysTick_unregisterInterrupt                
00007409  SysTick_enableInterrupt                    
00007415  SysTick_disableInterrupt                   
00007421  SysTick_setPeriod                          
00007433  SysTick_getPeriod                          
0000743b  SysTick_getValue                           
000074bb  __aeabi_d2f                                
00007529  __TI_decompress_lzss                       
00007591  frexp                                      
00007591  frexpl                                     
000075f5  Pwm_init                                   
000076af  __TI_ltoa                                  
00007755  atoi                                       
000077a1  __aeabi_d2iz                               
000077e9  __TI_auto_init_nobinit_nopinit             
0000782d  sprintf                                    
000078ab  CPU_cpsid                                  
000078b7  CPU_primask                                
000078c1  CPU_cpsie                                  
000078cd  CPU_wfi                                    
000078d1  CPU_basepriSet                             
000078df  CPU_basepriGet                             
000078e9  __aeabi_f2d                                
00007921  _c_int00_noargs                            
00007955  T32_INT1_IRQHandler                        
00007955  T32_INT1_IRQHandler                        
00007977  EUSCIA0_IRQHandler                         
00007977  EUSCIA0_IRQHandler                         
00007985  __aeabi_i2d                                
000079b3  memccpy                                    
000079cf  copysign                                   
000079cf  copysignl                                  
00007a01  strchr                                     
00007a17  strlen                                     
00007a2b  wcslen                                     
00007a3d  __TI_decompress_none                       
00007a4b  Reset_Handler                              
00007a57  ADC14_IRQHandler                           
00007a57  AES256_IRQHandler                          
00007a57  BusFault_Handler                           
00007a57  COMP_E0_IRQHandler                         
00007a57  COMP_E1_IRQHandler                         
00007a57  CS_IRQHandler                              
00007a57  DMA_ERR_IRQHandler                         
00007a57  DMA_INT0_IRQHandler                        
00007a57  DMA_INT1_IRQHandler                        
00007a57  DMA_INT2_IRQHandler                        
00007a57  DMA_INT3_IRQHandler                        
00007a57  DebugMon_Handler                           
00007a57  Default_Handler                            
00007a57  EUSCIA1_IRQHandler                         
00007a57  EUSCIA2_IRQHandler                         
00007a57  EUSCIA3_IRQHandler                         
00007a57  EUSCIB0_IRQHandler                         
00007a57  EUSCIB1_IRQHandler                         
00007a57  EUSCIB2_IRQHandler                         
00007a57  EUSCIB3_IRQHandler                         
00007a57  FLCTL_IRQHandler                           
00007a57  FPU_IRQHandler                             
00007a57  HardFault_Handler                          
00007a57  MemManage_Handler                          
00007a57  NMI_Handler                                
00007a57  PCM_IRQHandler                             
00007a57  PORT2_IRQHandler                           
00007a57  PORT3_IRQHandler                           
00007a57  PORT4_IRQHandler                           
00007a57  PORT5_IRQHandler                           
00007a57  PORT6_IRQHandler                           
00007a57  PSS_IRQHandler                             
00007a57  PendSV_Handler                             
00007a57  RTC_C_IRQHandler                           
00007a57  SVC_Handler                                
00007a57  SysTick_Handler                            
00007a57  T32_INT2_IRQHandler                        
00007a57  T32_INTC_IRQHandler                        
00007a57  TA0_0_IRQHandler                           
00007a57  TA0_N_IRQHandler                           
00007a57  TA1_0_IRQHandler                           
00007a57  TA1_N_IRQHandler                           
00007a57  TA2_0_IRQHandler                           
00007a57  TA2_N_IRQHandler                           
00007a57  TA3_0_IRQHandler                           
00007a57  TA3_N_IRQHandler                           
00007a57  UsageFault_Handler                         
00007a57  WDT_A_IRQHandler                           
00007a59  __TI_zero_init                             
00007a71  __aeabi_errno_addr                         
00007a79  _system_pre_init                           
00007a7d  C$$EXIT                                    
00007a7d  abort                                      
00007a80  F8X16                                      
00008070  F16x16                                     
00008470  F6x8                                       
00008698  _ctypes_                                   
000088c4  uartConfig                                 
00008928  upDownConfig                               
00008950  compareConfig_PWM3                         
00008960  compareConfig_PWM4                         
00008a00  __TI_Handler_Table_Base                    
00008a0c  __TI_Handler_Table_Limit                   
00008a20  __TI_CINIT_Base                            
00008a38  __TI_CINIT_Limit                           
20000000  __start___llvm_prf_cnts                    
20000000  __stop___llvm_prf_cnts                     
20000000  g_pfnRAMVectors                            
200000e8  OLED_GRAM                                  
200004e8  res                                        
20000518  PID_Diff                                   
20000558  PID_L                                      
20000598  PID_R                                      
20000618  outl                                       
2000061c  outr                                       
20000620  outdiff                                    
20000624  speed                                      
20000628  threshold                                  
2000062c  cap_flag                                   
20000634  flag_final                                 
20000638  Travel_time                                
2000063c  flag4                                      
2000064c  ch                                         
20000658  errno                                      
2000065c  SystemCoreClock                            
2000fe00  __stack                                    
20010000  __STACK_END                                
4000480c  WDTCTL_SYM                                 
ffffffff  __TI_pprof_out_hndl                        
ffffffff  __TI_prof_data_size                        
ffffffff  __TI_prof_data_start                       
ffffffff  __binit__                                  
ffffffff  __c_args__                                 
ffffffff  binit                                      
UNDEFED   __mpu_init                                 
UNDEFED   _system_post_cinit                         

[410 symbols]
