******************************************************************************
                  TI ARM Linker PC v20.2.1                     
******************************************************************************
>> Linked Tue Oct  6 18:49:12 2020

OUTPUT FILE NAME:   <oled_spi.out>
ENTRY POINT SYMBOL: "_c_int00_noargs"  address: 00005989


MEMORY CONFIGURATION

         name            origin    length      used     unused   attr    fill
----------------------  --------  ---------  --------  --------  ----  --------
  MAIN                  00000000   00040000  00007504  00038afc  R  X
  INFO                  00200000   00004000  00000000  00004000  R  X
  SRAM_CODE             01000000   00010000  00001c24  0000e3dc  RW X
  SRAM_DATA             20000000   00010000  00001c24  0000e3dc  RW  


SEGMENT ALLOCATION MAP

run origin  load origin   length   init length attrs members
----------  ----------- ---------- ----------- ----- -------
00000000    00000000    00007508   00007508    r-x
  00000000    00000000    000000e4   000000e4    r-- .intvecs
  000000e4    000000e4    00005928   00005928    r-x .text
  00005a0c    00005a0c    00001888   00001888    r-- .const
  00007298    00007298    00000270   00000270    r-- .cinit
20000000    20000000    00001a24   00000000    rw-
  20000000    20000000    000000e4   00000000    rw- .vtable
  200000e4    200000e4    000014b8   00000000    rw- .data
  2000159c    2000159c    00000488   00000000    rw- .bss
2000fe00    2000fe00    00000200   00000000    rw-
  2000fe00    2000fe00    00000200   00000000    rw- .stack


SECTION ALLOCATION MAP

 output                                  attributes/
section   page    origin      length       input sections
--------  ----  ----------  ----------   ----------------
.intvecs   0    00000000    000000e4     
                  00000000    000000e4     startup_msp432p401r_ccs.obj (.intvecs:retain)

.text      0    000000e4    00005928     
                  000000e4    00001598     flash.obj (.text)
                  0000167c    00000d98     oled_spi.obj (.text)
                  00002414    00000d7c     cs.obj (.text)
                  00003190    000008a4     spi.obj (.text)
                  00003a34    00000838     pcm.obj (.text)
                  0000426c    00000508     rtc_c.obj (.text)
                  00004774    00000480     gpio.obj (.text)
                  00004bf4    000003f0     interrupt.obj (.text)
                  00004fe4    00000334     system_msp432p401r.obj (.text)
                  00005318    00000244     sysctl.obj (.text)
                  0000555c    000000dc     delay.obj (.text)
                  00005638    000000d8     wdt_a.obj (.text)
                  00005710    0000009c     rtsv7M4_T_le_v4SPD16_eabi.lib : memcpy_t2.asm.obj (.text)
                  000057ac    0000007a                                   : memset_t2.asm.obj (.text)
                  00005826    00000002     --HOLE-- [fill = 0]
                  00005828    00000074     systick.obj (.text)
                  0000589c    00000068     rtsv7M4_T_le_v4SPD16_eabi.lib : copy_decompress_lzss.c.obj (.text:decompress:lzss:__TI_decompress_lzss)
                  00005904    00000044                                   : autoinit.c.obj (.text:__TI_auto_init_nobinit_nopinit:__TI_auto_init_nobinit_nopinit)
                  00005948    0000003e     cpu.obj (.text)
                  00005986    00000002     --HOLE-- [fill = 0]
                  00005988    00000034     rtsv7M4_T_le_v4SPD16_eabi.lib : boot_cortex_m.c.obj (.text:_c_int00_noargs:_c_int00_noargs)
                  000059bc    00000020     main.obj (.text)
                  000059dc    0000000e     rtsv7M4_T_le_v4SPD16_eabi.lib : copy_decompress_none.c.obj (.text:decompress:none:__TI_decompress_none)
                  000059ea    0000000e     startup_msp432p401r_ccs.obj (.text)
                  000059f8    0000000c     rtsv7M4_T_le_v4SPD16_eabi.lib : copy_zero_init.c.obj (.text:decompress:ZI:__TI_zero_init)
                  00005a04    00000004                                   : pre_init.c.obj (.text:_system_pre_init)
                  00005a08    00000004                                   : exit.c.obj (.text:abort:abort)

.const     0    00005a0c    00001888     
                  00005a0c    00000d5c     oled_spi.obj (.const:asc2_2412)
                  00006768    000005f0     oled_spi.obj (.const:asc2_1608)
                  00006d58    00000474     oled_spi.obj (.const:asc2_1206)
                  000071cc    00000050     interrupt.obj (.const:g_pulRegs)
                  0000721c    00000020     interrupt.obj (.const:g_pulPriority)
                  0000723c    0000001c     gpio.obj (.const:GPIO_PORT_TO_INT)
                  00007258    0000001c     oled_spi.obj (.const:spiMasterConfig)
                  00007274    00000008     interrupt.obj (.const:g_pulDisRegs)
                  0000727c    00000008     interrupt.obj (.const:g_pulEnRegs)
                  00007284    00000008     interrupt.obj (.const:g_pulPendRegs)
                  0000728c    00000008     interrupt.obj (.const:g_pulUnpendRegs)

.cinit     0    00007298    00000270     
                  00007298    00000235     (.cinit..data.load) [load image, compression = lzss]
                  000074cd    00000003     --HOLE-- [fill = 0]
                  000074d0    0000000c     (__TI_handler_table)
                  000074dc    00000004     --HOLE-- [fill = 0]
                  000074e0    00000008     (.cinit..bss.load) [load image, compression = zero_init]
                  000074e8    00000008     (.cinit..vtable.load) [load image, compression = zero_init]
                  000074f0    00000018     (__TI_cinit_table)

.init_array 
*          0    00000000    00000000     UNINITIALIZED

.binit     0    00000000    00000000     

.vtable    0    20000000    000000e4     UNINITIALIZED
                  20000000    000000e4     interrupt.obj (.vtable)

.data      0    200000e4    000014b8     UNINITIALIZED
                  200000e4    00001000     oled_spi.obj (.data:Hzk4)
                  200010e4    00000200     oled_spi.obj (.data:Hzk3)
                  200012e4    00000160     oled_spi.obj (.data:Hzk1)
                  20001444    000000d8     oled_spi.obj (.data:Hzk2)
                  2000151c    00000040     flash.obj (.data:__getBurstProgramRegs)
                  2000155c    00000030     gpio.obj (.data:GPIO_PORT_TO_BASE)
                  2000158c    00000008     oled_spi.obj (.data)
                  20001594    00000004     delay.obj (.data)
                  20001598    00000004     system_msp432p401r.obj (.data)

.bss       0    2000159c    00000488     UNINITIALIZED
                  2000159c    00000480     (.common:OLED_GRAM)
                  20001a1c    00000008     cs.obj (.bss)

.stack     0    2000fe00    00000200     UNINITIALIZED
                  2000fe00    00000004     rtsv7M4_T_le_v4SPD16_eabi.lib : boot_cortex_m.c.obj (.stack)
                  2000fe04    000001fc     --HOLE--

__llvm_prf_cnts 
*          0    20000000    00000000     UNINITIALIZED

MODULE SUMMARY

       Module                        code    ro data   rw data
       ------                        ----    -------   -------
    .\
       system_msp432p401r.obj        820     0         8      
       startup_msp432p401r_ccs.obj   14      228       0      
       main.obj                      32      0         0      
    +--+-----------------------------+-------+---------+---------+
       Total:                        866     228       8      
                                                              
    .\delay\
       delay.obj                     220     0         8      
    +--+-----------------------------+-------+---------+---------+
       Total:                        220     0         8      
                                                              
    .\driverlib\MSP432P4xx\
       flash.obj                     5528    0         128    
       cs.obj                        3452    0         16     
       spi.obj                       2212    0         0      
       pcm.obj                       2104    0         0      
       interrupt.obj                 1008    144       456    
       rtc_c.obj                     1288    0         0      
       gpio.obj                      1152    28        96     
       sysctl.obj                    580     0         0      
       wdt_a.obj                     216     0         0      
       systick.obj                   116     0         0      
       cpu.obj                       62      0         0      
    +--+-----------------------------+-------+---------+---------+
       Total:                        17718   172       696    
                                                              
    .\oled\
       oled_spi.obj                  3480    6108      12672  
    +--+-----------------------------+-------+---------+---------+
       Total:                        3480    6108      12672  
                                                              
    D:\ccs\tools\compiler\ti-cgt-arm_20.2.1.LTS\lib\rtsv7M4_T_le_v4SPD16_eabi.lib
       memcpy_t2.asm.obj             156     0         0      
       memset_t2.asm.obj             122     0         0      
       copy_decompress_lzss.c.obj    104     0         0      
       autoinit.c.obj                68      0         0      
       boot_cortex_m.c.obj           52      0         0      
       copy_decompress_none.c.obj    14      0         0      
       copy_zero_init.c.obj          12      0         0      
       exit.c.obj                    4       0         0      
       pre_init.c.obj                4       0         0      
    +--+-----------------------------+-------+---------+---------+
       Total:                        536     0         0      
                                                              
       Stack:                        0       0         1024   
       Linker Generated:             0       617       0      
    +--+-----------------------------+-------+---------+---------+
       Grand Total:                  22820   7125      14408  


LINKER GENERATED COPY TABLES

__TI_cinit_table @ 000074f0 records: 3, size/record: 8, table size: 24
	.data: load addr=00007298, load size=00000235 bytes, run addr=200000e4, run size=000014b8 bytes, compression=lzss
	.bss: load addr=000074e0, load size=00000008 bytes, run addr=2000159c, run size=00000488 bytes, compression=zero_init
	.vtable: load addr=000074e8, load size=00000008 bytes, run addr=20000000, run size=000000e4 bytes, compression=zero_init


LINKER GENERATED HANDLER TABLE

__TI_handler_table @ 000074d0 records: 3, size/record: 4, table size: 12
	index: 0, handler: __TI_zero_init
	index: 1, handler: __TI_decompress_lzss
	index: 2, handler: __TI_decompress_none


GLOBAL SYMBOLS: SORTED ALPHABETICALLY BY Name 

address   name                                       
-------   ----                                       
000059f7  ADC14_IRQHandler                           
000059f7  AES256_IRQHandler                          
000059f7  BusFault_Handler                           
00005a09  C$$EXIT                                    
000059f7  COMP_E0_IRQHandler                         
000059f7  COMP_E1_IRQHandler                         
0000597d  CPU_basepriGet                             
0000596f  CPU_basepriSet                             
00005949  CPU_cpsid                                  
0000595f  CPU_cpsie                                  
00005955  CPU_primask                                
0000596b  CPU_wfi                                    
000059f7  CS_IRQHandler                              
00003115  CS_clearInterruptFlag                      
000029bd  CS_disableClockRequest                     
00002aa3  CS_disableDCOExternalResistor              
00002fe9  CS_disableFaultCounter                     
000030d3  CS_disableInterrupt                        
00002995  CS_enableClockRequest                      
00002a05  CS_enableDCOExternalResistor               
00002fbd  CS_enableFaultCounter                      
000030b1  CS_enableInterrupt                         
00002f55  CS_getACLK                                 
00002f15  CS_getBCLK                                 
00002b9d  CS_getDCOFrequency                         
000030fb  CS_getEnabledInterruptStatus               
00002f31  CS_getHSMCLK                               
000030f5  CS_getInterruptStatus                      
00002f9b  CS_getMCLK                                 
00002f79  CS_getSMCLK                                
000026b5  CS_initClockSignal                         
00003137  CS_registerInterrupt                       
00003015  CS_resetFaultCounter                       
00002ac1  CS_setDCOCenteredFrequency                 
00002a2d  CS_setDCOExternalResistorCalibration       
00002d3d  CS_setDCOFrequency                         
00002679  CS_setExternalClockSourceFrequency         
000029df  CS_setReferenceOscillatorFrequency         
00003061  CS_startFaultCounter                       
000027b9  CS_startHFXT                               
000027dd  CS_startHFXTWithTimeout                    
000028a1  CS_startLFXT                               
000028c5  CS_startLFXTWithTimeout                    
00002af9  CS_tuneDCOFrequency                        
0000314b  CS_unregisterInterrupt                     
000059f7  DMA_ERR_IRQHandler                         
000059f7  DMA_INT0_IRQHandler                        
000059f7  DMA_INT1_IRQHandler                        
000059f7  DMA_INT2_IRQHandler                        
000059f7  DMA_INT3_IRQHandler                        
000059f7  DebugMon_Handler                           
000059f7  Default_Handler                            
000059f7  EUSCIA0_IRQHandler                         
000059f7  EUSCIA1_IRQHandler                         
000059f7  EUSCIA2_IRQHandler                         
000059f7  EUSCIA3_IRQHandler                         
000059f7  EUSCIB0_IRQHandler                         
000059f7  EUSCIB1_IRQHandler                         
000059f7  EUSCIB2_IRQHandler                         
000059f7  EUSCIB3_IRQHandler                         
000038ff  EUSCI_A_SPI_changeClockPhasePolarity       
000039b3  EUSCI_A_SPI_clearInterruptFlag             
000039e3  EUSCI_A_SPI_disable                        
00003981  EUSCI_A_SPI_disableInterrupt               
000039cd  EUSCI_A_SPI_enable                         
00003967  EUSCI_A_SPI_enableInterrupt                
0000399b  EUSCI_A_SPI_getInterruptStatus             
000039f9  EUSCI_A_SPI_getReceiveBufferAddressForDMA  
00003a07  EUSCI_A_SPI_getTransmitBufferAddressForDMA 
00003a15  EUSCI_A_SPI_isBusy                         
0000387f  EUSCI_A_SPI_masterChangeClock              
00003957  EUSCI_A_SPI_receiveData                    
0000385f  EUSCI_A_SPI_select4PinFunctionality        
000038b5  EUSCI_A_SPI_slaveInit                      
00003941  EUSCI_A_SPI_transmitData                   
00003731  EUSCI_B_SPI_changeClockPhasePolarity       
000037e5  EUSCI_B_SPI_clearInterruptFlag             
00003815  EUSCI_B_SPI_disable                        
000037b3  EUSCI_B_SPI_disableInterrupt               
000037ff  EUSCI_B_SPI_enable                         
00003799  EUSCI_B_SPI_enableInterrupt                
000037cd  EUSCI_B_SPI_getInterruptStatus             
0000382b  EUSCI_B_SPI_getReceiveBufferAddressForDMA  
00003839  EUSCI_B_SPI_getTransmitBufferAddressForDMA 
00003847  EUSCI_B_SPI_isBusy                         
000036b5  EUSCI_B_SPI_masterChangeClock              
00003789  EUSCI_B_SPI_receiveData                    
00003695  EUSCI_B_SPI_select4PinFunctionality        
000036e7  EUSCI_B_SPI_slaveInit                      
00003773  EUSCI_B_SPI_transmitData                   
000059f7  FLCTL_IRQHandler                           
000059f7  FPU_IRQHandler                             
0000112b  FlashCtl_clearInterruptFlag                
00000fef  FlashCtl_clearProgramVerification          
00001101  FlashCtl_disableInterrupt                  
00000661  FlashCtl_disableReadBuffering              
00001059  FlashCtl_disableWordProgramming            
000010ed  FlashCtl_enableInterrupt                   
0000060d  FlashCtl_enableReadBuffering               
00001029  FlashCtl_enableWordProgramming             
00000c8d  FlashCtl_eraseSector                       
0000111b  FlashCtl_getEnabledInterruptStatus         
00001115  FlashCtl_getInterruptStatus                
0000028f  FlashCtl_getMemoryInfo                     
00000af1  FlashCtl_getReadMode                       
000010bf  FlashCtl_getWaitState                      
00000b1b  FlashCtl_initiateMassErase                 
00000db1  FlashCtl_initiateSectorErase               
00000791  FlashCtl_isSectorProtected                 
00001061  FlashCtl_isWordProgrammingEnabled          
00000b41  FlashCtl_performMassErase                  
00000e49  FlashCtl_programMemory                     
00000731  FlashCtl_protectSector                     
0000113f  FlashCtl_registerInterrupt                 
00000fb5  FlashCtl_setProgramVerification            
00000a85  FlashCtl_setReadMode                       
00001081  FlashCtl_setWaitState                      
000006c1  FlashCtl_unprotectSector                   
00001153  FlashCtl_unregisterInterrupt               
0000081d  FlashCtl_verifyMemory                      
00004a97  GPIO_clearInterruptFlag                    
00004a57  GPIO_disableInterrupt                      
00004a35  GPIO_enableInterrupt                       
00004aef  GPIO_getEnabledInterruptStatus             
00004a07  GPIO_getInputPinValue                      
00004a79  GPIO_getInterruptStatus                    
00004ab9  GPIO_interruptEdgeSelect                   
00004baf  GPIO_registerInterrupt                     
000047af  GPIO_setAsInputPin                         
00004963  GPIO_setAsInputPinWithPullDownResistor     
000049b5  GPIO_setAsInputPinWithPullUpResistor       
00004775  GPIO_setAsOutputPin                        
00004879  GPIO_setAsPeripheralModuleFunctionInputPin 
000047f5  GPIO_setAsPeripheralModuleFunctionOutputPin
00004b6b  GPIO_setDriveStrengthHigh                  
00004b8d  GPIO_setDriveStrengthLow                   
000048fd  GPIO_setOutputHighOnPin                    
0000491f  GPIO_setOutputLowOnPin                     
00004941  GPIO_toggleOutputOnPin                     
00004bcf  GPIO_unregisterInterrupt                   
000059f7  HardFault_Handler                          
200012e4  Hzk1                                       
20001444  Hzk2                                       
200010e4  Hzk3                                       
200000e4  Hzk4                                       
00004db7  Interrupt_disableInterrupt                 
00004c07  Interrupt_disableMaster                    
00004fb5  Interrupt_disableSleepOnIsrExit            
00004d45  Interrupt_enableInterrupt                  
00004bf7  Interrupt_enableMaster                     
00004fa3  Interrupt_enableSleepOnIsrExit             
00004d1f  Interrupt_getPriority                      
00004c97  Interrupt_getPriorityGrouping              
00004f83  Interrupt_getPriorityMask                  
00004f9d  Interrupt_getVectorTableAddress            
00004e29  Interrupt_isEnabled                        
00004eb5  Interrupt_pendInterrupt                    
00004c17  Interrupt_registerInterrupt                
00004ccf  Interrupt_setPriority                      
00004c7d  Interrupt_setPriorityGrouping              
00004f73  Interrupt_setPriorityMask                  
00004f8d  Interrupt_setVectorTableAddress            
00004f25  Interrupt_unpendInterrupt                  
00004c69  Interrupt_unregisterInterrupt              
000059f7  MemManage_Handler                          
000059f7  NMI_Handler                                
00001807  OLED_Clear                                 
000018b9  OLED_ClearPoint                            
000016fb  OLED_ColorTurn                             
00001773  OLED_DisPlay_Off                           
00001757  OLED_DisPlay_On                            
00001721  OLED_DisplayTurn                           
00001b11  OLED_DrawCircle                            
00001959  OLED_DrawLine                              
00001861  OLED_DrawPoint                             
00001aa9  OLED_DrawSquare                            
2000159c  OLED_GRAM                                  
000022f1  OLED_Init                                  
00001e0f  OLED_Pow                                   
000022c9  OLED_Printf                                
0000178f  OLED_Refresh                               
00002095  OLED_ScrollDisplay                         
00001c41  OLED_ShowChar                              
00001ef9  OLED_ShowChinese                           
00001e3f  OLED_ShowNum                               
0000221d  OLED_ShowPicture                           
00001d99  OLED_ShowString                            
000021e1  OLED_WR_BP                                 
000016b9  OLED_WR_Byte                               
000059f7  PCM_IRQHandler                             
0000420f  PCM_clearInterruptFlag                     
000041e5  PCM_disableInterrupt                       
000041bd  PCM_disableRudeMode                        
000041d1  PCM_enableInterrupt                        
000041ab  PCM_enableRudeMode                         
00003bb7  PCM_getCoreVoltageLevel                    
000041ff  PCM_getEnabledInterruptStatus              
000041f9  PCM_getInterruptStatus                     
00003b5d  PCM_getPowerMode                           
0000419f  PCM_getPowerState                          
000040d1  PCM_gotoLPM0                               
000040ef  PCM_gotoLPM0InterruptSafe                  
0000410b  PCM_gotoLPM3                               
00004183  PCM_gotoLPM3InterruptSafe                  
000040a5  PCM_gotoLPM4                               
000040b5  PCM_gotoLPM4InterruptSafe                  
00004223  PCM_registerInterrupt                      
00003b2b  PCM_setCoreVoltageLevel                    
00003b4d  PCM_setCoreVoltageLevelNonBlocking         
00003b3b  PCM_setCoreVoltageLevelWithTimeout         
00003d5d  PCM_setPowerMode                           
00003d6d  PCM_setPowerModeNonBlocking                
00003d7d  PCM_setPowerModeWithTimeout                
0000402f  PCM_setPowerState                          
00004051  PCM_setPowerStateNonBlocking               
0000403f  PCM_setPowerStateWithTimeout               
00004061  PCM_shutdownDevice                         
00004237  PCM_unregisterInterrupt                    
000059f7  PORT1_IRQHandler                           
000059f7  PORT2_IRQHandler                           
000059f7  PORT3_IRQHandler                           
000059f7  PORT4_IRQHandler                           
000059f7  PORT5_IRQHandler                           
000059f7  PORT6_IRQHandler                           
000059f7  PSS_IRQHandler                             
000059f7  PendSV_Handler                             
000059f7  RTC_C_IRQHandler                           
000046c9  RTC_C_clearInterruptFlag                   
00004513  RTC_C_convertBCDToBinary                   
0000452b  RTC_C_convertBinaryToBCD                   
0000446f  RTC_C_definePrescaleEvent                  
00004599  RTC_C_disableInterrupt                     
00004543  RTC_C_enableInterrupt                      
000043a1  RTC_C_getCalendarTime                      
00004669  RTC_C_getEnabledInterruptStatus            
00004601  RTC_C_getInterruptStatus                   
00004497  RTC_C_getPrescaleValue                     
0000428b  RTC_C_holdClock                            
0000432f  RTC_C_initCalendar                         
0000470f  RTC_C_registerInterrupt                    
00004407  RTC_C_setCalendarAlarm                     
0000443f  RTC_C_setCalendarEvent                     
000042d9  RTC_C_setCalibrationData                   
000042a9  RTC_C_setCalibrationFrequency              
000044c3  RTC_C_setPrescaleValue                     
00004305  RTC_C_setTemperatureCompensation           
0000426d  RTC_C_startClock                           
0000472d  RTC_C_unregisterInterrupt                  
000059eb  Reset_Handler                              
00003353  SPI_changeClockPhasePolarity               
000032ad  SPI_changeMasterClock                      
00003505  SPI_clearInterruptFlag                     
00003487  SPI_disableInterrupt                       
000033e1  SPI_disableModule                          
00003461  SPI_enableInterrupt                        
000033c5  SPI_enableModule                           
000034d5  SPI_getEnabledInterruptStatus              
000034ad  SPI_getInterruptStatus                     
000033fd  SPI_getReceiveBufferAddressForDMA          
00003419  SPI_getTransmitBufferAddressForDMA         
000031c1  SPI_initMaster                             
000032d5  SPI_initSlave                              
00003445  SPI_isBusy                                 
000033a9  SPI_receiveData                            
0000352b  SPI_registerInterrupt                      
00003287  SPI_selectFourPinFunctionality             
00003383  SPI_transmitData                           
000035e9  SPI_unregisterInterrupt                    
000059f7  SVC_Handler                                
0000550b  SysCtl_disableGlitchFilter                 
0000539b  SysCtl_disableNMISource                    
000054a3  SysCtl_disablePeripheralAtCPUHalt          
000053e5  SysCtl_disableSRAMBank                     
00005469  SysCtl_disableSRAMBankRetention            
000054ff  SysCtl_enableGlitchFilter                  
000053af  SysCtl_enableNMISource                     
0000548f  SysCtl_enablePeripheralAtCPUHalt           
000053c9  SysCtl_enableSRAMBank                      
0000544d  SysCtl_enableSRAMBankRetention             
00005395  SysCtl_getFlashSize                        
000053c3  SysCtl_getNMISourceStatus                  
0000538f  SysCtl_getSRAMSize                         
00005319  SysCtl_getTLVInfo                          
00005517  SysCtl_getTempCalibrationConstant          
00005485  SysCtl_rebootDevice                        
000054db  SysCtl_setWDTPasswordViolationResetType    
000054b7  SysCtl_setWDTTimeoutResetType              
000059f7  SysTick_Handler                            
00005865  SysTick_disableInterrupt                   
00005835  SysTick_disableModule                      
00005859  SysTick_enableInterrupt                    
00005829  SysTick_enableModule                       
00005883  SysTick_getPeriod                          
0000588b  SysTick_getValue                           
00005841  SysTick_registerInterrupt                  
00005871  SysTick_setPeriod                          
0000584f  SysTick_unregisterInterrupt                
20001598  SystemCoreClock                            
00004fe5  SystemCoreClockUpdate                      
0000525d  SystemInit                                 
000059f7  T32_INT1_IRQHandler                        
000059f7  T32_INT2_IRQHandler                        
000059f7  T32_INTC_IRQHandler                        
000059f7  TA0_0_IRQHandler                           
000059f7  TA0_N_IRQHandler                           
000059f7  TA1_0_IRQHandler                           
000059f7  TA1_N_IRQHandler                           
000059f7  TA2_0_IRQHandler                           
000059f7  TA2_N_IRQHandler                           
000059f7  TA3_0_IRQHandler                           
000059f7  TA3_N_IRQHandler                           
000059f7  UsageFault_Handler                         
4000480c  WDTCTL_SYM                                 
000059f7  WDT_A_IRQHandler                           
00005679  WDT_A_clearTimer                           
00005639  WDT_A_holdTimer                            
000056b5  WDT_A_initIntervalTimer                    
00005699  WDT_A_initWatchdogTimer                    
000056e9  WDT_A_registerInterrupt                    
000056d1  WDT_A_setPasswordViolationReset            
000056dd  WDT_A_setTimeoutReset                      
00005659  WDT_A_startTimer                           
000056fd  WDT_A_unregisterInterrupt                  
00001557  __FlashCtl_remaskBurstDataPost             
0000143d  __FlashCtl_remaskBurstDataPre              
00001281  __FlashCtl_remaskData32Post                
00001365  __FlashCtl_remaskData32Pre                 
00001163  __FlashCtl_remaskData8Post                 
000011e3  __FlashCtl_remaskData8Pre                  
20010000  __STACK_END                                
00000200  __STACK_SIZE                               
000074f0  __TI_CINIT_Base                            
00007508  __TI_CINIT_Limit                           
000074d0  __TI_Handler_Table_Base                    
000074dc  __TI_Handler_Table_Limit                   
00005905  __TI_auto_init_nobinit_nopinit             
0000589d  __TI_decompress_lzss                       
000059dd  __TI_decompress_none                       
ffffffff  __TI_pprof_out_hndl                        
ffffffff  __TI_prof_data_size                        
ffffffff  __TI_prof_data_start                       
00000000  __TI_static_base__                         
000059f9  __TI_zero_init                             
000057ad  __aeabi_memclr                             
000057ad  __aeabi_memclr4                            
000057ad  __aeabi_memclr8                            
00005711  __aeabi_memcpy                             
00005711  __aeabi_memcpy4                            
00005711  __aeabi_memcpy8                            
000057af  __aeabi_memset                             
000057af  __aeabi_memset4                            
000057af  __aeabi_memset8                            
ffffffff  __binit__                                  
ffffffff  __c_args__                                 
UNDEFED   __mpu_init                                 
2000fe00  __stack                                    
20000000  __start___llvm_prf_cnts                    
20000000  __stop___llvm_prf_cnts                     
00005989  _c_int00_noargs                            
UNDEFED   _system_post_cinit                         
00005a05  _system_pre_init                           
00005a09  abort                                      
00006d58  asc2_1206                                  
00006768  asc2_1608                                  
00005a0c  asc2_2412                                  
ffffffff  binit                                      
0000555d  delay_init                                 
000055a7  delay_ms                                   
000055e3  delay_us                                   
20000000  g_pfnRAMVectors                            
2000158c  i                                          
20001590  i2                                         
00000000  interruptVectors                           
000059bd  main                                       
00005711  memcpy                                     
000057b5  memset                                     
00007258  spiMasterConfig                            
0000167d  spi_oled_init                              


GLOBAL SYMBOLS: SORTED BY Symbol Address 

address   name                                       
-------   ----                                       
00000000  __TI_static_base__                         
00000000  interruptVectors                           
00000200  __STACK_SIZE                               
0000028f  FlashCtl_getMemoryInfo                     
0000060d  FlashCtl_enableReadBuffering               
00000661  FlashCtl_disableReadBuffering              
000006c1  FlashCtl_unprotectSector                   
00000731  FlashCtl_protectSector                     
00000791  FlashCtl_isSectorProtected                 
0000081d  FlashCtl_verifyMemory                      
00000a85  FlashCtl_setReadMode                       
00000af1  FlashCtl_getReadMode                       
00000b1b  FlashCtl_initiateMassErase                 
00000b41  FlashCtl_performMassErase                  
00000c8d  FlashCtl_eraseSector                       
00000db1  FlashCtl_initiateSectorErase               
00000e49  FlashCtl_programMemory                     
00000fb5  FlashCtl_setProgramVerification            
00000fef  FlashCtl_clearProgramVerification          
00001029  FlashCtl_enableWordProgramming             
00001059  FlashCtl_disableWordProgramming            
00001061  FlashCtl_isWordProgrammingEnabled          
00001081  FlashCtl_setWaitState                      
000010bf  FlashCtl_getWaitState                      
000010ed  FlashCtl_enableInterrupt                   
00001101  FlashCtl_disableInterrupt                  
00001115  FlashCtl_getInterruptStatus                
0000111b  FlashCtl_getEnabledInterruptStatus         
0000112b  FlashCtl_clearInterruptFlag                
0000113f  FlashCtl_registerInterrupt                 
00001153  FlashCtl_unregisterInterrupt               
00001163  __FlashCtl_remaskData8Post                 
000011e3  __FlashCtl_remaskData8Pre                  
00001281  __FlashCtl_remaskData32Post                
00001365  __FlashCtl_remaskData32Pre                 
0000143d  __FlashCtl_remaskBurstDataPre              
00001557  __FlashCtl_remaskBurstDataPost             
0000167d  spi_oled_init                              
000016b9  OLED_WR_Byte                               
000016fb  OLED_ColorTurn                             
00001721  OLED_DisplayTurn                           
00001757  OLED_DisPlay_On                            
00001773  OLED_DisPlay_Off                           
0000178f  OLED_Refresh                               
00001807  OLED_Clear                                 
00001861  OLED_DrawPoint                             
000018b9  OLED_ClearPoint                            
00001959  OLED_DrawLine                              
00001aa9  OLED_DrawSquare                            
00001b11  OLED_DrawCircle                            
00001c41  OLED_ShowChar                              
00001d99  OLED_ShowString                            
00001e0f  OLED_Pow                                   
00001e3f  OLED_ShowNum                               
00001ef9  OLED_ShowChinese                           
00002095  OLED_ScrollDisplay                         
000021e1  OLED_WR_BP                                 
0000221d  OLED_ShowPicture                           
000022c9  OLED_Printf                                
000022f1  OLED_Init                                  
00002679  CS_setExternalClockSourceFrequency         
000026b5  CS_initClockSignal                         
000027b9  CS_startHFXT                               
000027dd  CS_startHFXTWithTimeout                    
000028a1  CS_startLFXT                               
000028c5  CS_startLFXTWithTimeout                    
00002995  CS_enableClockRequest                      
000029bd  CS_disableClockRequest                     
000029df  CS_setReferenceOscillatorFrequency         
00002a05  CS_enableDCOExternalResistor               
00002a2d  CS_setDCOExternalResistorCalibration       
00002aa3  CS_disableDCOExternalResistor              
00002ac1  CS_setDCOCenteredFrequency                 
00002af9  CS_tuneDCOFrequency                        
00002b9d  CS_getDCOFrequency                         
00002d3d  CS_setDCOFrequency                         
00002f15  CS_getBCLK                                 
00002f31  CS_getHSMCLK                               
00002f55  CS_getACLK                                 
00002f79  CS_getSMCLK                                
00002f9b  CS_getMCLK                                 
00002fbd  CS_enableFaultCounter                      
00002fe9  CS_disableFaultCounter                     
00003015  CS_resetFaultCounter                       
00003061  CS_startFaultCounter                       
000030b1  CS_enableInterrupt                         
000030d3  CS_disableInterrupt                        
000030f5  CS_getInterruptStatus                      
000030fb  CS_getEnabledInterruptStatus               
00003115  CS_clearInterruptFlag                      
00003137  CS_registerInterrupt                       
0000314b  CS_unregisterInterrupt                     
000031c1  SPI_initMaster                             
00003287  SPI_selectFourPinFunctionality             
000032ad  SPI_changeMasterClock                      
000032d5  SPI_initSlave                              
00003353  SPI_changeClockPhasePolarity               
00003383  SPI_transmitData                           
000033a9  SPI_receiveData                            
000033c5  SPI_enableModule                           
000033e1  SPI_disableModule                          
000033fd  SPI_getReceiveBufferAddressForDMA          
00003419  SPI_getTransmitBufferAddressForDMA         
00003445  SPI_isBusy                                 
00003461  SPI_enableInterrupt                        
00003487  SPI_disableInterrupt                       
000034ad  SPI_getInterruptStatus                     
000034d5  SPI_getEnabledInterruptStatus              
00003505  SPI_clearInterruptFlag                     
0000352b  SPI_registerInterrupt                      
000035e9  SPI_unregisterInterrupt                    
00003695  EUSCI_B_SPI_select4PinFunctionality        
000036b5  EUSCI_B_SPI_masterChangeClock              
000036e7  EUSCI_B_SPI_slaveInit                      
00003731  EUSCI_B_SPI_changeClockPhasePolarity       
00003773  EUSCI_B_SPI_transmitData                   
00003789  EUSCI_B_SPI_receiveData                    
00003799  EUSCI_B_SPI_enableInterrupt                
000037b3  EUSCI_B_SPI_disableInterrupt               
000037cd  EUSCI_B_SPI_getInterruptStatus             
000037e5  EUSCI_B_SPI_clearInterruptFlag             
000037ff  EUSCI_B_SPI_enable                         
00003815  EUSCI_B_SPI_disable                        
0000382b  EUSCI_B_SPI_getReceiveBufferAddressForDMA  
00003839  EUSCI_B_SPI_getTransmitBufferAddressForDMA 
00003847  EUSCI_B_SPI_isBusy                         
0000385f  EUSCI_A_SPI_select4PinFunctionality        
0000387f  EUSCI_A_SPI_masterChangeClock              
000038b5  EUSCI_A_SPI_slaveInit                      
000038ff  EUSCI_A_SPI_changeClockPhasePolarity       
00003941  EUSCI_A_SPI_transmitData                   
00003957  EUSCI_A_SPI_receiveData                    
00003967  EUSCI_A_SPI_enableInterrupt                
00003981  EUSCI_A_SPI_disableInterrupt               
0000399b  EUSCI_A_SPI_getInterruptStatus             
000039b3  EUSCI_A_SPI_clearInterruptFlag             
000039cd  EUSCI_A_SPI_enable                         
000039e3  EUSCI_A_SPI_disable                        
000039f9  EUSCI_A_SPI_getReceiveBufferAddressForDMA  
00003a07  EUSCI_A_SPI_getTransmitBufferAddressForDMA 
00003a15  EUSCI_A_SPI_isBusy                         
00003b2b  PCM_setCoreVoltageLevel                    
00003b3b  PCM_setCoreVoltageLevelWithTimeout         
00003b4d  PCM_setCoreVoltageLevelNonBlocking         
00003b5d  PCM_getPowerMode                           
00003bb7  PCM_getCoreVoltageLevel                    
00003d5d  PCM_setPowerMode                           
00003d6d  PCM_setPowerModeNonBlocking                
00003d7d  PCM_setPowerModeWithTimeout                
0000402f  PCM_setPowerState                          
0000403f  PCM_setPowerStateWithTimeout               
00004051  PCM_setPowerStateNonBlocking               
00004061  PCM_shutdownDevice                         
000040a5  PCM_gotoLPM4                               
000040b5  PCM_gotoLPM4InterruptSafe                  
000040d1  PCM_gotoLPM0                               
000040ef  PCM_gotoLPM0InterruptSafe                  
0000410b  PCM_gotoLPM3                               
00004183  PCM_gotoLPM3InterruptSafe                  
0000419f  PCM_getPowerState                          
000041ab  PCM_enableRudeMode                         
000041bd  PCM_disableRudeMode                        
000041d1  PCM_enableInterrupt                        
000041e5  PCM_disableInterrupt                       
000041f9  PCM_getInterruptStatus                     
000041ff  PCM_getEnabledInterruptStatus              
0000420f  PCM_clearInterruptFlag                     
00004223  PCM_registerInterrupt                      
00004237  PCM_unregisterInterrupt                    
0000426d  RTC_C_startClock                           
0000428b  RTC_C_holdClock                            
000042a9  RTC_C_setCalibrationFrequency              
000042d9  RTC_C_setCalibrationData                   
00004305  RTC_C_setTemperatureCompensation           
0000432f  RTC_C_initCalendar                         
000043a1  RTC_C_getCalendarTime                      
00004407  RTC_C_setCalendarAlarm                     
0000443f  RTC_C_setCalendarEvent                     
0000446f  RTC_C_definePrescaleEvent                  
00004497  RTC_C_getPrescaleValue                     
000044c3  RTC_C_setPrescaleValue                     
00004513  RTC_C_convertBCDToBinary                   
0000452b  RTC_C_convertBinaryToBCD                   
00004543  RTC_C_enableInterrupt                      
00004599  RTC_C_disableInterrupt                     
00004601  RTC_C_getInterruptStatus                   
00004669  RTC_C_getEnabledInterruptStatus            
000046c9  RTC_C_clearInterruptFlag                   
0000470f  RTC_C_registerInterrupt                    
0000472d  RTC_C_unregisterInterrupt                  
00004775  GPIO_setAsOutputPin                        
000047af  GPIO_setAsInputPin                         
000047f5  GPIO_setAsPeripheralModuleFunctionOutputPin
00004879  GPIO_setAsPeripheralModuleFunctionInputPin 
000048fd  GPIO_setOutputHighOnPin                    
0000491f  GPIO_setOutputLowOnPin                     
00004941  GPIO_toggleOutputOnPin                     
00004963  GPIO_setAsInputPinWithPullDownResistor     
000049b5  GPIO_setAsInputPinWithPullUpResistor       
00004a07  GPIO_getInputPinValue                      
00004a35  GPIO_enableInterrupt                       
00004a57  GPIO_disableInterrupt                      
00004a79  GPIO_getInterruptStatus                    
00004a97  GPIO_clearInterruptFlag                    
00004ab9  GPIO_interruptEdgeSelect                   
00004aef  GPIO_getEnabledInterruptStatus             
00004b6b  GPIO_setDriveStrengthHigh                  
00004b8d  GPIO_setDriveStrengthLow                   
00004baf  GPIO_registerInterrupt                     
00004bcf  GPIO_unregisterInterrupt                   
00004bf7  Interrupt_enableMaster                     
00004c07  Interrupt_disableMaster                    
00004c17  Interrupt_registerInterrupt                
00004c69  Interrupt_unregisterInterrupt              
00004c7d  Interrupt_setPriorityGrouping              
00004c97  Interrupt_getPriorityGrouping              
00004ccf  Interrupt_setPriority                      
00004d1f  Interrupt_getPriority                      
00004d45  Interrupt_enableInterrupt                  
00004db7  Interrupt_disableInterrupt                 
00004e29  Interrupt_isEnabled                        
00004eb5  Interrupt_pendInterrupt                    
00004f25  Interrupt_unpendInterrupt                  
00004f73  Interrupt_setPriorityMask                  
00004f83  Interrupt_getPriorityMask                  
00004f8d  Interrupt_setVectorTableAddress            
00004f9d  Interrupt_getVectorTableAddress            
00004fa3  Interrupt_enableSleepOnIsrExit             
00004fb5  Interrupt_disableSleepOnIsrExit            
00004fe5  SystemCoreClockUpdate                      
0000525d  SystemInit                                 
00005319  SysCtl_getTLVInfo                          
0000538f  SysCtl_getSRAMSize                         
00005395  SysCtl_getFlashSize                        
0000539b  SysCtl_disableNMISource                    
000053af  SysCtl_enableNMISource                     
000053c3  SysCtl_getNMISourceStatus                  
000053c9  SysCtl_enableSRAMBank                      
000053e5  SysCtl_disableSRAMBank                     
0000544d  SysCtl_enableSRAMBankRetention             
00005469  SysCtl_disableSRAMBankRetention            
00005485  SysCtl_rebootDevice                        
0000548f  SysCtl_enablePeripheralAtCPUHalt           
000054a3  SysCtl_disablePeripheralAtCPUHalt          
000054b7  SysCtl_setWDTTimeoutResetType              
000054db  SysCtl_setWDTPasswordViolationResetType    
000054ff  SysCtl_enableGlitchFilter                  
0000550b  SysCtl_disableGlitchFilter                 
00005517  SysCtl_getTempCalibrationConstant          
0000555d  delay_init                                 
000055a7  delay_ms                                   
000055e3  delay_us                                   
00005639  WDT_A_holdTimer                            
00005659  WDT_A_startTimer                           
00005679  WDT_A_clearTimer                           
00005699  WDT_A_initWatchdogTimer                    
000056b5  WDT_A_initIntervalTimer                    
000056d1  WDT_A_setPasswordViolationReset            
000056dd  WDT_A_setTimeoutReset                      
000056e9  WDT_A_registerInterrupt                    
000056fd  WDT_A_unregisterInterrupt                  
00005711  __aeabi_memcpy                             
00005711  __aeabi_memcpy4                            
00005711  __aeabi_memcpy8                            
00005711  memcpy                                     
000057ad  __aeabi_memclr                             
000057ad  __aeabi_memclr4                            
000057ad  __aeabi_memclr8                            
000057af  __aeabi_memset                             
000057af  __aeabi_memset4                            
000057af  __aeabi_memset8                            
000057b5  memset                                     
00005829  SysTick_enableModule                       
00005835  SysTick_disableModule                      
00005841  SysTick_registerInterrupt                  
0000584f  SysTick_unregisterInterrupt                
00005859  SysTick_enableInterrupt                    
00005865  SysTick_disableInterrupt                   
00005871  SysTick_setPeriod                          
00005883  SysTick_getPeriod                          
0000588b  SysTick_getValue                           
0000589d  __TI_decompress_lzss                       
00005905  __TI_auto_init_nobinit_nopinit             
00005949  CPU_cpsid                                  
00005955  CPU_primask                                
0000595f  CPU_cpsie                                  
0000596b  CPU_wfi                                    
0000596f  CPU_basepriSet                             
0000597d  CPU_basepriGet                             
00005989  _c_int00_noargs                            
000059bd  main                                       
000059dd  __TI_decompress_none                       
000059eb  Reset_Handler                              
000059f7  ADC14_IRQHandler                           
000059f7  AES256_IRQHandler                          
000059f7  BusFault_Handler                           
000059f7  COMP_E0_IRQHandler                         
000059f7  COMP_E1_IRQHandler                         
000059f7  CS_IRQHandler                              
000059f7  DMA_ERR_IRQHandler                         
000059f7  DMA_INT0_IRQHandler                        
000059f7  DMA_INT1_IRQHandler                        
000059f7  DMA_INT2_IRQHandler                        
000059f7  DMA_INT3_IRQHandler                        
000059f7  DebugMon_Handler                           
000059f7  Default_Handler                            
000059f7  EUSCIA0_IRQHandler                         
000059f7  EUSCIA1_IRQHandler                         
000059f7  EUSCIA2_IRQHandler                         
000059f7  EUSCIA3_IRQHandler                         
000059f7  EUSCIB0_IRQHandler                         
000059f7  EUSCIB1_IRQHandler                         
000059f7  EUSCIB2_IRQHandler                         
000059f7  EUSCIB3_IRQHandler                         
000059f7  FLCTL_IRQHandler                           
000059f7  FPU_IRQHandler                             
000059f7  HardFault_Handler                          
000059f7  MemManage_Handler                          
000059f7  NMI_Handler                                
000059f7  PCM_IRQHandler                             
000059f7  PORT1_IRQHandler                           
000059f7  PORT2_IRQHandler                           
000059f7  PORT3_IRQHandler                           
000059f7  PORT4_IRQHandler                           
000059f7  PORT5_IRQHandler                           
000059f7  PORT6_IRQHandler                           
000059f7  PSS_IRQHandler                             
000059f7  PendSV_Handler                             
000059f7  RTC_C_IRQHandler                           
000059f7  SVC_Handler                                
000059f7  SysTick_Handler                            
000059f7  T32_INT1_IRQHandler                        
000059f7  T32_INT2_IRQHandler                        
000059f7  T32_INTC_IRQHandler                        
000059f7  TA0_0_IRQHandler                           
000059f7  TA0_N_IRQHandler                           
000059f7  TA1_0_IRQHandler                           
000059f7  TA1_N_IRQHandler                           
000059f7  TA2_0_IRQHandler                           
000059f7  TA2_N_IRQHandler                           
000059f7  TA3_0_IRQHandler                           
000059f7  TA3_N_IRQHandler                           
000059f7  UsageFault_Handler                         
000059f7  WDT_A_IRQHandler                           
000059f9  __TI_zero_init                             
00005a05  _system_pre_init                           
00005a09  C$$EXIT                                    
00005a09  abort                                      
00005a0c  asc2_2412                                  
00006768  asc2_1608                                  
00006d58  asc2_1206                                  
00007258  spiMasterConfig                            
000074d0  __TI_Handler_Table_Base                    
000074dc  __TI_Handler_Table_Limit                   
000074f0  __TI_CINIT_Base                            
00007508  __TI_CINIT_Limit                           
20000000  __start___llvm_prf_cnts                    
20000000  __stop___llvm_prf_cnts                     
20000000  g_pfnRAMVectors                            
200000e4  Hzk4                                       
200010e4  Hzk3                                       
200012e4  Hzk1                                       
20001444  Hzk2                                       
2000158c  i                                          
20001590  i2                                         
20001598  SystemCoreClock                            
2000159c  OLED_GRAM                                  
2000fe00  __stack                                    
20010000  __STACK_END                                
4000480c  WDTCTL_SYM                                 
ffffffff  __TI_pprof_out_hndl                        
ffffffff  __TI_prof_data_size                        
ffffffff  __TI_prof_data_start                       
ffffffff  __binit__                                  
ffffffff  __c_args__                                 
ffffffff  binit                                      
UNDEFED   __mpu_init                                 
UNDEFED   _system_post_cinit                         

[378 symbols]
